target datalayout = "e-m:e-p270:32:32-p271:32:32-p272:64:64-i64:64-i128:128-f80:128-n8:16:32:64-S128"
target triple = "x86_64-pc-linux-gnu"

%"class.std::__shared_count" = type { ptr }
%"class.cv::bioinspired::RetinaImpl" = type <{ %"class.cv::bioinspired::Retina", %"struct.cv::bioinspired::RetinaParameters", %"class.std::valarray", %"struct.cv::Ptr.4", i8, [7 x i8] }>
%"class.cv::bioinspired::Retina" = type { %"class.cv::Algorithm" }
%"class.cv::Algorithm" = type { ptr }
%"struct.cv::bioinspired::RetinaParameters" = type { %"struct.cv::bioinspired::RetinaParameters::OPLandIplParvoParameters", %"struct.cv::bioinspired::RetinaParameters::IplMagnoParameters" }
%"struct.cv::bioinspired::RetinaParameters::OPLandIplParvoParameters" = type { i8, i8, float, float, float, float, float, float, float }
%"struct.cv::bioinspired::RetinaParameters::IplMagnoParameters" = type { i8, float, float, float, float, float, float, float }
%"class.std::valarray" = type { i64, ptr }
%"struct.cv::Ptr.4" = type { %"class.std::shared_ptr.5" }
%"class.std::shared_ptr.5" = type { %"class.std::__shared_ptr.6" }
%"class.std::__shared_ptr.6" = type { ptr, %"class.std::__shared_count" }
%"class.cv::bioinspired::RetinaFilter" = type <{ i8, i8, [2 x i8], i32, i32, [4 x i8], %"class.std::valarray", %"class.std::valarray", %"class.cv::bioinspired::BasicRetinaFilter", %"class.cv::bioinspired::ParvoRetinaFilter", %"class.cv::bioinspired::MagnoRetinaFilter", %"class.cv::bioinspired::RetinaColor", ptr, i8, i8, i8, i8, float, i8, [7 x i8] }>
%"class.cv::bioinspired::BasicRetinaFilter" = type { %"class.cv::bioinspired::TemplateBuffer", %"class.std::valarray", i32, i32, %"class.std::valarray", %"class.std::valarray", %"class.std::valarray", float, float, float, float, float, float, float, float }
%"class.cv::bioinspired::TemplateBuffer" = type { ptr, %"class.std::valarray", i64, i64, i64, i64, i64 }
%"class.cv::bioinspired::ParvoRetinaFilter" = type { ptr, %"class.cv::bioinspired::BasicRetinaFilter", %"class.std::valarray", %"class.std::valarray", %"class.std::valarray", %"class.std::valarray", %"class.std::valarray", %"class.std::valarray", %"class.std::valarray", ptr, ptr }
%"class.cv::bioinspired::MagnoRetinaFilter" = type <{ ptr, %"class.cv::bioinspired::BasicRetinaFilter", %"class.std::valarray", %"class.std::valarray", %"class.std::valarray", %"class.std::valarray", %"class.std::valarray", %"class.std::valarray", %"class.std::valarray", %"class.std::valarray", ptr, ptr, float, [4 x i8] }>
%"class.cv::bioinspired::RetinaColor" = type <{ ptr, %"class.cv::bioinspired::BasicRetinaFilter", i32, i8, [3 x i8], float, [4 x i8], ptr, ptr, %"class.std::valarray.8", %"class.std::valarray", %"class.std::valarray", %"class.std::valarray", %"class.std::valarray", %"class.std::valarray", %"class.std::valarray", %"class.std::valarray", float, float, float, i8, [3 x i8] }>
%"class.std::valarray.8" = type { i64, ptr }

; Function Attrs: mustprogress nounwind uwtable
define linkonce_odr hidden void @_ZN2cv11bioinspired11RetinaColor18setColorSaturationEbf(ptr noundef nonnull align 8 dereferenceable(349) %0, i1 noundef zeroext %1, float noundef %2) #9 comdat align 2 {
  %4 = alloca ptr, align 8
  %5 = alloca i8, align 1
  %6 = alloca float, align 4
  store ptr %0, ptr %4, align 8, !tbaa !201
  %7 = zext i1 %1 to i8
  store i8 %7, ptr %5, align 1, !tbaa !12
  store float %2, ptr %6, align 4, !tbaa !16
  %8 = load ptr, ptr %4, align 8
  %9 = load i8, ptr %5, align 1, !tbaa !12, !range !57, !noundef !58
  %10 = trunc i8 %9 to i1
  %11 = getelementptr inbounds nuw %"class.cv::bioinspired::RetinaColor", ptr %8, i32 0, i32 3
  %12 = zext i1 %10 to i8
  store i8 %12, ptr %11, align 4, !tbaa !203
  %13 = load float, ptr %6, align 4, !tbaa !16
  %14 = getelementptr inbounds nuw %"class.cv::bioinspired::RetinaColor", ptr %8, i32 0, i32 5
  store float %13, ptr %14, align 8, !tbaa !204
  ret void
}

; Function Attrs: mustprogress nounwind uwtable
define linkonce_odr hidden noundef ptr @_ZNKSt12__shared_ptrIN2cv11bioinspired12RetinaFilterELN9__gnu_cxx12_Lock_policyE2EE3getEv(ptr noundef nonnull align 8 dereferenceable(16) %0) #9 comdat align 2 {
  %2 = alloca ptr, align 8
  store ptr %0, ptr %2, align 8, !tbaa !281
  %3 = load ptr, ptr %2, align 8
  %4 = getelementptr inbounds nuw %"class.std::__shared_ptr.6", ptr %3, i32 0, i32 0
  %5 = load ptr, ptr %4, align 8, !tbaa !283
  ret ptr %5
}

; Function Attrs: inlinehint mustprogress uwtable
define linkonce_odr hidden void @_ZN2cv11bioinspired12RetinaFilter18setColorSaturationEbf(ptr noundef nonnull align 8 dereferenceable(1217) %0, i1 noundef zeroext %1, float noundef %2) #6 comdat align 2 {
  %4 = alloca ptr, align 8
  %5 = alloca i8, align 1
  %6 = alloca float, align 4
  store ptr %0, ptr %4, align 8, !tbaa !61
  %7 = zext i1 %1 to i8
  store i8 %7, ptr %5, align 1, !tbaa !12
  store float %2, ptr %6, align 4, !tbaa !16
  %8 = load ptr, ptr %4, align 8
  %9 = getelementptr inbounds nuw %"class.cv::bioinspired::RetinaFilter", ptr %8, i32 0, i32 11
  %10 = load i8, ptr %5, align 1, !tbaa !12, !range !57, !noundef !58
  %11 = trunc i8 %10 to i1
  %12 = load float, ptr %6, align 4, !tbaa !16
  call void @_ZN2cv11bioinspired11RetinaColor18setColorSaturationEbf(ptr noundef nonnull align 8 dereferenceable(349) %9, i1 noundef zeroext %11, float noundef %12)
  ret void
}

; Function Attrs: mustprogress nounwind uwtable
define linkonce_odr hidden noundef ptr @_ZNK2cv3PtrINS_11bioinspired12RetinaFilterEEptEv(ptr noundef nonnull align 8 dereferenceable(16) %0) #9 comdat align 2 {
  %2 = alloca ptr, align 8
  store ptr %0, ptr %2, align 8, !tbaa !39
  %3 = load ptr, ptr %2, align 8
  %4 = call noundef ptr @_ZNKSt12__shared_ptrIN2cv11bioinspired12RetinaFilterELN9__gnu_cxx12_Lock_policyE2EE3getEv(ptr noundef nonnull align 8 dereferenceable(16) %3) #3
  ret ptr %4
}

; Function Attrs: mustprogress uwtable
define hidden void @_ZN2cv11bioinspired10RetinaImpl18setColorSaturationEbf(ptr noundef nonnull align 8 dereferenceable(112) %0, i1 noundef zeroext %1, float noundef %2) unnamed_addr #4 align 2 {
  %4 = alloca ptr, align 8
  %5 = alloca i8, align 1
  %6 = alloca float, align 4
  store ptr %0, ptr %4, align 8, !tbaa !24
  %7 = zext i1 %1 to i8
  store i8 %7, ptr %5, align 1, !tbaa !12
  store float %2, ptr %6, align 4, !tbaa !16
  %8 = load ptr, ptr %4, align 8
  %9 = getelementptr inbounds nuw %"class.cv::bioinspired::RetinaImpl", ptr %8, i32 0, i32 3
  %10 = call noundef ptr @_ZNK2cv3PtrINS_11bioinspired12RetinaFilterEEptEv(ptr noundef nonnull align 8 dereferenceable(16) %9) #3
  %11 = load i8, ptr %5, align 1, !tbaa !12, !range !57, !noundef !58
  %12 = trunc i8 %11 to i1
  %13 = load float, ptr %6, align 4, !tbaa !16
  call void @_ZN2cv11bioinspired12RetinaFilter18setColorSaturationEbf(ptr noundef nonnull align 8 dereferenceable(1217) %10, i1 noundef zeroext %12, float noundef %13)
  ret void
}