; Function Attrs: mustprogress nofree norecurse nosync nounwind willreturn memory(write, argmem: readwrite, inaccessiblemem: none) uwtable
define hidden void @_ZN2cv11bioinspired10RetinaImpl18setColorSaturationEbf(ptr noundef nonnull readonly align 8 captures(none) dereferenceable(112) %0, i1 noundef zeroext %1, float noundef %2) unnamed_addr #9 align 2 {
  %4 = getelementptr inbounds nuw i8, ptr %0, i64 88
  %5 = load ptr, ptr %4, align 8, !tbaa !70
  %6 = zext i1 %1 to i8
  %7 = getelementptr inbounds nuw i8, ptr %5, i64 1028
  store i8 %6, ptr %7, align 4, !tbaa !88
  %8 = getelementptr inbounds nuw i8, ptr %5, i64 1032
  store float %2, ptr %8, align 8, !tbaa !89
  ret void
}